target datalayout = "e-m:e-p270:32:32-p271:32:32-p272:64:64-i64:64-i128:128-f80:128-n8:16:32:64-S128"
target triple = "x86_64-pc-linux-gnu"

%"class.llvm::SmallVectorBase" = type { ptr, i32, i32 }
%"class.llvm::SUnit" = type <{ %union.anon.43, ptr, ptr, ptr, ptr, %"class.llvm::SmallVector.44", %"class.llvm::SmallVector.44", i32, i32, i32, i32, i32, i32, i32, i32, i32, i32, i32, i32, i16, i16, i16, i8, i8 }>
%union.anon.43 = type { ptr }
%"class.llvm::SmallVector.44" = type { %"class.llvm::SmallVectorImpl.45", %"struct.llvm::SmallVectorStorage.48" }
%"class.llvm::SmallVectorImpl.45" = type { %"class.llvm::SmallVectorTemplateBase.46" }
%"class.llvm::SmallVectorTemplateBase.46" = type { %"class.llvm::SmallVectorTemplateCommon.47" }
%"class.llvm::SmallVectorTemplateCommon.47" = type { %"class.llvm::SmallVectorBase" }
%"struct.llvm::SmallVectorStorage.48" = type { [64 x i8] }
%"class.llvm::SDep" = type { %"class.llvm::PointerIntPair", %union.anon.49, i32 }
%"class.llvm::PointerIntPair" = type { %"struct.llvm::detail::PunnedPointer" }
%"struct.llvm::detail::PunnedPointer" = type { [8 x i8] }
%union.anon.49 = type { i32 }
%"class.llvm::ConvergingVLIWScheduler" = type { %"class.llvm::MachineSchedStrategy", ptr, ptr, %"struct.llvm::ConvergingVLIWScheduler::VLIWSchedBoundary", %"struct.llvm::ConvergingVLIWScheduler::VLIWSchedBoundary", %"class.llvm::SmallVector.147" }
%"class.llvm::MachineSchedStrategy" = type { ptr }
%"struct.llvm::ConvergingVLIWScheduler::VLIWSchedBoundary" = type <{ ptr, ptr, %"class.llvm::ReadyQueue", %"class.llvm::ReadyQueue", i8, [7 x i8], ptr, ptr, i32, i32, i32, i32, i32, [4 x i8] }>
%"class.llvm::ReadyQueue" = type { i32, %"class.std::__cxx11::basic_string", %"class.std::vector.142" }
%"class.std::__cxx11::basic_string" = type { %"struct.std::__cxx11::basic_string<char>::_Alloc_hider", i64, %union.anon }
%"struct.std::__cxx11::basic_string<char>::_Alloc_hider" = type { ptr }
%union.anon = type { i64, [8 x i8] }
%"class.std::vector.142" = type { %"struct.std::_Vector_base.143" }
%"struct.std::_Vector_base.143" = type { %"struct.std::_Vector_base<llvm::SUnit *, std::allocator<llvm::SUnit *>>::_Vector_impl" }
%"struct.std::_Vector_base<llvm::SUnit *, std::allocator<llvm::SUnit *>>::_Vector_impl" = type { %"struct.std::_Vector_base<llvm::SUnit *, std::allocator<llvm::SUnit *>>::_Vector_impl_data" }
%"struct.std::_Vector_base<llvm::SUnit *, std::allocator<llvm::SUnit *>>::_Vector_impl_data" = type { ptr, ptr, ptr }
%"class.llvm::SmallVector.147" = type { %"class.llvm::SmallVectorImpl.148", %"struct.llvm::SmallVectorStorage.152" }
%"class.llvm::SmallVectorImpl.148" = type { %"class.llvm::SmallVectorTemplateBase.149" }
%"class.llvm::SmallVectorTemplateBase.149" = type { %"class.llvm::SmallVectorTemplateCommon.150" }
%"class.llvm::SmallVectorTemplateCommon.150" = type { %"class.llvm::SmallVectorBase.151" }
%"class.llvm::SmallVectorBase.151" = type { ptr, i64, i64 }
%"struct.llvm::SmallVectorStorage.152" = type { [40 x i8] }

; Function Attrs: mustprogress nounwind uwtable
define linkonce_odr hidden noundef ptr @_ZN4llvm21PointerLikeTypeTraitsIPNS_5SUnitEE18getFromVoidPointerEPv(ptr noundef %0) #1 comdat align 2 {
  %2 = alloca ptr, align 8
  store ptr %0, ptr %2, align 8
  %3 = load ptr, ptr %2, align 8
  ret ptr %3
}

; Function Attrs: mustprogress nounwind uwtable
define linkonce_odr hidden noundef i64 @_ZNK4llvm6detail13PunnedPointerIPNS_5SUnitEE5asIntEv(ptr noundef nonnull align 8 dereferenceable(8) %0) #1 comdat align 2 {
  %2 = alloca ptr, align 8
  %3 = alloca i64, align 8
  store ptr %0, ptr %2, align 8
  %4 = load ptr, ptr %2, align 8
  store i64 0, ptr %3, align 8
  %5 = getelementptr inbounds nuw %"struct.llvm::detail::PunnedPointer", ptr %4, i32 0, i32 0
  %6 = getelementptr inbounds [8 x i8], ptr %5, i64 0, i64 0
  call void @llvm.memcpy.p0.p0.i64(ptr align 8 %3, ptr align 8 %6, i64 8, i1 false)
  %7 = load i64, ptr %3, align 8
  ret i64 %7
}

; Function Attrs: mustprogress nounwind uwtable
define linkonce_odr hidden noundef ptr @_ZN4llvm18PointerIntPairInfoIPNS_5SUnitELj2ENS_21PointerLikeTypeTraitsIS2_EEE10getPointerEl(i64 noundef %0) #1 comdat align 2 {
  %2 = alloca i64, align 8
  store i64 %0, ptr %2, align 8
  %3 = load i64, ptr %2, align 8
  %4 = and i64 %3, -8
  %5 = inttoptr i64 %4 to ptr
  %6 = call noundef ptr @_ZN4llvm21PointerLikeTypeTraitsIPNS_5SUnitEE18getFromVoidPointerEPv(ptr noundef %5)
  ret ptr %6
}

; Function Attrs: mustprogress nounwind uwtable
define linkonce_odr hidden noundef i64 @_ZNK4llvm6detail13PunnedPointerIPNS_5SUnitEEcvlEv(ptr noundef nonnull align 8 dereferenceable(8) %0) #1 comdat align 2 {
  %2 = alloca ptr, align 8
  store ptr %0, ptr %2, align 8
  %3 = load ptr, ptr %2, align 8
  %4 = call noundef i64 @_ZNK4llvm6detail13PunnedPointerIPNS_5SUnitEE5asIntEv(ptr noundef nonnull align 8 dereferenceable(8) %3)
  ret i64 %4
}

; Function Attrs: mustprogress nounwind uwtable
define linkonce_odr hidden noundef ptr @_ZNK4llvm14PointerIntPairIPNS_5SUnitELj2ENS_4SDep4KindENS_21PointerLikeTypeTraitsIS2_EENS_18PointerIntPairInfoIS2_Lj2ES6_EEE10getPointerEv(ptr noundef nonnull align 8 dereferenceable(8) %0) #1 comdat align 2 {
  %2 = alloca ptr, align 8
  store ptr %0, ptr %2, align 8
  %3 = load ptr, ptr %2, align 8
  %4 = getelementptr inbounds nuw %"class.llvm::PointerIntPair", ptr %3, i32 0, i32 0
  %5 = call noundef i64 @_ZNK4llvm6detail13PunnedPointerIPNS_5SUnitEEcvlEv(ptr noundef nonnull align 8 dereferenceable(8) %4)
  %6 = call noundef ptr @_ZN4llvm18PointerIntPairInfoIPNS_5SUnitELj2ENS_21PointerLikeTypeTraitsIS2_EEE10getPointerEl(i64 noundef %5)
  ret ptr %6
}

; Function Attrs: mustprogress nounwind uwtable
define linkonce_odr hidden noundef i32 @_ZNK4llvm4SDep10getLatencyEv(ptr noundef nonnull align 8 dereferenceable(16) %0) #1 comdat align 2 {
  %2 = alloca ptr, align 8
  store ptr %0, ptr %2, align 8
  %3 = load ptr, ptr %2, align 8
  %4 = getelementptr inbounds nuw %"class.llvm::SDep", ptr %3, i32 0, i32 2
  %5 = load i32, ptr %4, align 4
  ret i32 %5
}

; Function Attrs: mustprogress nounwind uwtable
define linkonce_odr hidden noundef ptr @_ZNK4llvm4SDep8getSUnitEv(ptr noundef nonnull align 8 dereferenceable(16) %0) #1 comdat align 2 {
  %2 = alloca ptr, align 8
  store ptr %0, ptr %2, align 8
  %3 = load ptr, ptr %2, align 8
  %4 = getelementptr inbounds nuw %"class.llvm::SDep", ptr %3, i32 0, i32 0
  %5 = call noundef ptr @_ZNK4llvm14PointerIntPairIPNS_5SUnitELj2ENS_4SDep4KindENS_21PointerLikeTypeTraitsIS2_EENS_18PointerIntPairInfoIS2_Lj2ES6_EEE10getPointerEv(ptr noundef nonnull align 8 dereferenceable(8) %4)
  ret ptr %5
}

; Function Attrs: mustprogress nounwind uwtable
define linkonce_odr hidden noundef ptr @_ZN4llvm25SmallVectorTemplateCommonINS_4SDepEvE3endEv(ptr noundef nonnull align 8 dereferenceable(16) %0) #1 comdat align 2 {
  %2 = alloca ptr, align 8
  store ptr %0, ptr %2, align 8
  %3 = load ptr, ptr %2, align 8
  %4 = call noundef ptr @_ZN4llvm25SmallVectorTemplateCommonINS_4SDepEvE5beginEv(ptr noundef nonnull align 8 dereferenceable(16) %3)
  %5 = call noundef i64 @_ZNK4llvm15SmallVectorBaseIjE4sizeEv(ptr noundef nonnull align 8 dereferenceable(16) %3)
  %6 = getelementptr inbounds %"class.llvm::SDep", ptr %4, i64 %5
  ret ptr %6
}

; Function Attrs: mustprogress nounwind uwtable
define linkonce_odr hidden noundef ptr @_ZN4llvm25SmallVectorTemplateCommonINS_4SDepEvE5beginEv(ptr noundef nonnull align 8 dereferenceable(16) %0) #1 comdat align 2 {
  %2 = alloca ptr, align 8
  store ptr %0, ptr %2, align 8
  %3 = load ptr, ptr %2, align 8
  %4 = getelementptr inbounds nuw %"class.llvm::SmallVectorBase", ptr %3, i32 0, i32 0
  %5 = load ptr, ptr %4, align 8
  ret ptr %5
}

; Function Attrs: mustprogress nounwind uwtable
define dso_local void @_ZN4llvm23ConvergingVLIWScheduler14releaseTopNodeEPNS_5SUnitE(ptr noundef nonnull align 8 dereferenceable(472) %0, ptr noundef %1) unnamed_addr #1 align 2 {
  %3 = alloca ptr, align 8
  %4 = alloca ptr, align 8
  %5 = alloca ptr, align 8
  %6 = alloca ptr, align 8
  %7 = alloca ptr, align 8
  %8 = alloca ptr, align 8
  %9 = alloca i32, align 4
  %10 = alloca i32, align 4
  store ptr %0, ptr %3, align 8
  store ptr %1, ptr %4, align 8
  %11 = load ptr, ptr %3, align 8
  %12 = load ptr, ptr %4, align 8
  %13 = getelementptr inbounds nuw %"class.llvm::SUnit", ptr %12, i32 0, i32 5
  store ptr %13, ptr %5, align 8
  %14 = load ptr, ptr %5, align 8
  %15 = call noundef ptr @_ZN4llvm25SmallVectorTemplateCommonINS_4SDepEvE5beginEv(ptr noundef nonnull align 8 dereferenceable(16) %14)
  store ptr %15, ptr %6, align 8
  %16 = load ptr, ptr %5, align 8
  %17 = call noundef ptr @_ZN4llvm25SmallVectorTemplateCommonINS_4SDepEvE3endEv(ptr noundef nonnull align 8 dereferenceable(16) %16)
  store ptr %17, ptr %7, align 8
  br label %18

18:                                               ; preds = %44, %2
  %19 = load ptr, ptr %6, align 8
  %20 = load ptr, ptr %7, align 8
  %21 = icmp ne ptr %19, %20
  br i1 %21, label %22, label %47

22:                                               ; preds = %18
  %23 = load ptr, ptr %6, align 8
  store ptr %23, ptr %8, align 8
  %24 = load ptr, ptr %8, align 8
  %25 = call noundef ptr @_ZNK4llvm4SDep8getSUnitEv(ptr noundef nonnull align 8 dereferenceable(16) %24)
  %26 = getelementptr inbounds nuw %"class.llvm::SUnit", ptr %25, i32 0, i32 15
  %27 = load i32, ptr %26, align 8
  store i32 %27, ptr %9, align 4
  %28 = load ptr, ptr %8, align 8
  %29 = call noundef i32 @_ZNK4llvm4SDep10getLatencyEv(ptr noundef nonnull align 8 dereferenceable(16) %28)
  store i32 %29, ptr %10, align 4
  %30 = load ptr, ptr %4, align 8
  %31 = getelementptr inbounds nuw %"class.llvm::SUnit", ptr %30, i32 0, i32 15
  %32 = load i32, ptr %31, align 8
  %33 = load i32, ptr %9, align 4
  %34 = load i32, ptr %10, align 4
  %35 = add i32 %33, %34
  %36 = icmp ult i32 %32, %35
  br i1 %36, label %37, label %43

37:                                               ; preds = %22
  %38 = load i32, ptr %9, align 4
  %39 = load i32, ptr %10, align 4
  %40 = add i32 %38, %39
  %41 = load ptr, ptr %4, align 8
  %42 = getelementptr inbounds nuw %"class.llvm::SUnit", ptr %41, i32 0, i32 15
  store i32 %40, ptr %42, align 8
  br label %43

43:                                               ; preds = %37, %22
  br label %44

44:                                               ; preds = %43
  %45 = load ptr, ptr %6, align 8
  %46 = getelementptr inbounds %"class.llvm::SDep", ptr %45, i32 1
  store ptr %46, ptr %6, align 8
  br label %18

47:                                               ; preds = %18
  %48 = load ptr, ptr %4, align 8
  %49 = getelementptr inbounds nuw %"class.llvm::SUnit", ptr %48, i32 0, i32 19
  %50 = load i16, ptr %49, align 8
  %51 = lshr i16 %50, 10
  %52 = and i16 %51, 1
  %53 = trunc i16 %52 to i1
  br i1 %53, label %60, label %54

54:                                               ; preds = %47
  %55 = getelementptr inbounds nuw %"class.llvm::ConvergingVLIWScheduler", ptr %11, i32 0, i32 3
  %56 = load ptr, ptr %4, align 8
  %57 = load ptr, ptr %4, align 8
  %58 = getelementptr inbounds nuw %"class.llvm::SUnit", ptr %57, i32 0, i32 15
  %59 = load i32, ptr %58, align 8
  call void @_ZN4llvm23ConvergingVLIWScheduler17VLIWSchedBoundary11releaseNodeEPNS_5SUnitEj(ptr noundef nonnull align 8 dereferenceable(188) %55, ptr noundef %56, i32 noundef %59)
  br label %60

60:                                               ; preds = %54, %47
  ret void
}