; Function Attrs: mustprogress nounwind uwtable
define dso_local void @_ZN4llvm23ConvergingVLIWScheduler14releaseTopNodeEPNS_5SUnitE(ptr nocapture noundef nonnull align 8 dereferenceable(472) %0, ptr noundef %1) unnamed_addr #0 align 2 {
  %3 = getelementptr inbounds nuw i8, ptr %1, i64 40
  %4 = load ptr, ptr %3, align 8
  %5 = tail call noundef i64 @_ZNK4llvm15SmallVectorBaseIjE4sizeEv(ptr noundef nonnull align 8 dereferenceable(16) %3) #15
  %6 = getelementptr inbounds %"class.llvm::SDep", ptr %4, i64 %5
  %.not20 = icmp eq i64 %5, 0
  br i1 %.not20, label %._crit_edge, label %.lr.ph

.lr.ph:                                           ; preds = %2
  %7 = getelementptr inbounds nuw i8, ptr %1, i64 232
  %.promoted = load i32, ptr %7, align 8
  br label %8

8:                                                ; preds = %.lr.ph, %19
  %9 = phi i32 [ %.promoted, %.lr.ph ], [ %20, %19 ]
  %.021 = phi ptr [ %4, %.lr.ph ], [ %21, %19 ]
  %.0.copyload.i.i.i.i = load i64, ptr %.021, align 8
  %10 = and i64 %.0.copyload.i.i.i.i, -8
  %11 = inttoptr i64 %10 to ptr
  %12 = getelementptr inbounds nuw i8, ptr %11, i64 232
  %13 = load i32, ptr %12, align 8
  %14 = getelementptr inbounds nuw i8, ptr %.021, i64 12
  %15 = load i32, ptr %14, align 4
  %16 = add i32 %15, %13
  %17 = icmp ult i32 %9, %16
  br i1 %17, label %18, label %19

18:                                               ; preds = %8
  store i32 %16, ptr %7, align 8
  br label %19

19:                                               ; preds = %8, %18
  %20 = phi i32 [ %9, %8 ], [ %16, %18 ]
  %21 = getelementptr inbounds i8, ptr %.021, i64 16
  %.not = icmp eq ptr %21, %6
  br i1 %.not, label %._crit_edge, label %8

._crit_edge:                                      ; preds = %19, %2
  %22 = getelementptr inbounds nuw i8, ptr %1, i64 248
  %23 = load i16, ptr %22, align 8
  %24 = and i16 %23, 1024
  %.not19 = icmp eq i16 %24, 0
  br i1 %.not19, label %25, label %29

25:                                               ; preds = %._crit_edge
  %26 = getelementptr inbounds nuw i8, ptr %0, i64 24
  %27 = getelementptr inbounds nuw i8, ptr %1, i64 232
  %28 = load i32, ptr %27, align 8
  tail call void @_ZN4llvm23ConvergingVLIWScheduler17VLIWSchedBoundary11releaseNodeEPNS_5SUnitEj(ptr noundef nonnull align 8 dereferenceable(188) %26, ptr noundef nonnull %1, i32 noundef %28)
  br label %29

29:                                               ; preds = %25, %._crit_edge
  ret void
}